; Function Attrs: mustprogress nounwind uwtable
define void @jsonnet_destroy(ptr noundef %0) local_unnamed_addr #3 {
  %2 = icmp eq ptr %0, null
  br i1 %2, label %4, label %3

3:                                                ; preds = %1
  tail call void @_ZN9JsonnetVmD2Ev(ptr noundef nonnull align 8 dereferenceable(237) %0) #30
  tail call void @_ZdlPv(ptr noundef nonnull %0) #33
  br label %4

4:                                                ; preds = %3, %1
  ret void
}